; Function Attrs: mustprogress nofree norecurse nosync nounwind willreturn memory(none) uwtable
define i64 @mz_deflateBound(ptr nocapture noundef readnone %0, i64 noundef %1) local_unnamed_addr #15 {
  %3 = mul i64 %1, 110
  %4 = udiv i64 %3, 100
  %5 = add nuw nsw i64 %4, 128
  %6 = udiv i64 %1, 31744
  %7 = mul nuw nsw i64 %6, 5
  %8 = add i64 %1, 133
  %9 = add i64 %8, %7
  %. = tail call i64 @llvm.umax.i64(i64 %5, i64 %9)
  ret i64 %.
}